target datalayout = "e-m:e-p270:32:32-p271:32:32-p272:64:64-i64:64-i128:128-f80:128-n8:16:32:64-S128"
target triple = "x86_64-pc-linux-gnu"

%struct.Mig_Man_t_ = type { ptr, i32, i32, i32, %struct.Vec_Ptr_t_, %struct.Vec_Int_t_, %struct.Vec_Int_t_, ptr, i32, i32, %struct.Vec_Int_t_, %struct.Vec_Int_t_, %struct.Vec_Int_t_, %struct.Vec_Int_t_, %struct.Vec_Int_t_, ptr }
%struct.Vec_Ptr_t_ = type { i32, i32, ptr }
%struct.Vec_Int_t_ = type { i32, i32, ptr }
%struct.Mig_Obj_t_ = type { [4 x %struct.Mig_Fan_t_] }
%struct.Mig_Fan_t_ = type { i32 }

; Function Attrs: nounwind uwtable
define internal ptr @Vec_PtrEntry(ptr noundef %0, i32 noundef %1) #0 {
  %3 = alloca ptr, align 8
  %4 = alloca i32, align 4
  store ptr %0, ptr %3, align 8
  store i32 %1, ptr %4, align 4
  %5 = load ptr, ptr %3, align 8
  %6 = getelementptr inbounds %struct.Vec_Ptr_t_, ptr %5, i32 0, i32 2
  %7 = load ptr, ptr %6, align 8
  %8 = load i32, ptr %4, align 4
  %9 = sext i32 %8 to i64
  %10 = getelementptr inbounds ptr, ptr %7, i64 %9
  %11 = load ptr, ptr %10, align 8
  ret ptr %11
}

; Function Attrs: nounwind uwtable
define internal i32 @Mig_IdPage(i32 noundef %0) #0 {
  %2 = alloca i32, align 4
  store i32 %0, ptr %2, align 4
  %3 = load i32, ptr %2, align 4
  %4 = ashr i32 %3, 12
  ret i32 %4
}

; Function Attrs: nounwind uwtable
define internal ptr @Mig_ManPage(ptr noundef %0, i32 noundef %1) #0 {
  %3 = alloca ptr, align 8
  %4 = alloca i32, align 4
  store ptr %0, ptr %3, align 8
  store i32 %1, ptr %4, align 4
  %5 = load ptr, ptr %3, align 8
  %6 = getelementptr inbounds %struct.Mig_Man_t_, ptr %5, i32 0, i32 4
  %7 = load i32, ptr %4, align 4
  %8 = call i32 @Mig_IdPage(i32 noundef %7)
  %9 = call ptr @Vec_PtrEntry(ptr noundef %6, i32 noundef %8)
  ret ptr %9
}

; Function Attrs: nounwind uwtable
define internal ptr @Mig_ManObj(ptr noundef %0, i32 noundef %1) #0 {
  %3 = alloca ptr, align 8
  %4 = alloca i32, align 4
  store ptr %0, ptr %3, align 8
  store i32 %1, ptr %4, align 4
  %5 = load ptr, ptr %3, align 8
  %6 = load i32, ptr %4, align 4
  %7 = call ptr @Mig_ManPage(ptr noundef %5, i32 noundef %6)
  %8 = load i32, ptr %4, align 4
  %9 = call i32 @Mig_IdCell(i32 noundef %8)
  %10 = sext i32 %9 to i64
  %11 = getelementptr inbounds %struct.Mig_Obj_t_, ptr %7, i64 %10
  ret ptr %11
}

; Function Attrs: nounwind uwtable
define internal i32 @Mig_ObjFaninId(ptr noundef %0, i32 noundef %1) #0 {
  %3 = alloca ptr, align 8
  %4 = alloca i32, align 4
  store ptr %0, ptr %3, align 8
  store i32 %1, ptr %4, align 4
  %5 = load ptr, ptr %3, align 8
  %6 = load i32, ptr %4, align 4
  %7 = call i32 @Mig_FanId(ptr noundef %5, i32 noundef %6)
  ret i32 %7
}

; Function Attrs: nounwind uwtable
define internal void @Vec_IntWriteEntry(ptr noundef %0, i32 noundef %1, i32 noundef %2) #0 {
  %4 = alloca ptr, align 8
  %5 = alloca i32, align 4
  %6 = alloca i32, align 4
  store ptr %0, ptr %4, align 8
  store i32 %1, ptr %5, align 4
  store i32 %2, ptr %6, align 4
  %7 = load i32, ptr %6, align 4
  %8 = load ptr, ptr %4, align 8
  %9 = getelementptr inbounds %struct.Vec_Int_t_, ptr %8, i32 0, i32 2
  %10 = load ptr, ptr %9, align 8
  %11 = load i32, ptr %5, align 4
  %12 = sext i32 %11 to i64
  %13 = getelementptr inbounds i32, ptr %10, i64 %12
  store i32 %7, ptr %13, align 4
  ret void
}

; Function Attrs: nounwind uwtable
define internal i32 @Vec_IntEntry(ptr noundef %0, i32 noundef %1) #0 {
  %3 = alloca ptr, align 8
  %4 = alloca i32, align 4
  store ptr %0, ptr %3, align 8
  store i32 %1, ptr %4, align 4
  %5 = load ptr, ptr %3, align 8
  %6 = getelementptr inbounds %struct.Vec_Int_t_, ptr %5, i32 0, i32 2
  %7 = load ptr, ptr %6, align 8
  %8 = load i32, ptr %4, align 4
  %9 = sext i32 %8 to i64
  %10 = getelementptr inbounds i32, ptr %7, i64 %9
  %11 = load i32, ptr %10, align 4
  ret i32 %11
}

; Function Attrs: nounwind uwtable
define internal i32 @Mig_FanId(ptr noundef %0, i32 noundef %1) #0 {
  %3 = alloca ptr, align 8
  %4 = alloca i32, align 4
  store ptr %0, ptr %3, align 8
  store i32 %1, ptr %4, align 4
  %5 = load ptr, ptr %3, align 8
  %6 = getelementptr inbounds %struct.Mig_Obj_t_, ptr %5, i32 0, i32 0
  %7 = load i32, ptr %4, align 4
  %8 = sext i32 %7 to i64
  %9 = getelementptr inbounds [4 x %struct.Mig_Fan_t_], ptr %6, i64 0, i64 %8
  %10 = load i32, ptr %9, align 4
  %11 = lshr i32 %10, 1
  ret i32 %11
}

; Function Attrs: nounwind uwtable
define internal i32 @Mig_IdCell(i32 noundef %0) #0 {
  %2 = alloca i32, align 4
  store i32 %0, ptr %2, align 4
  %3 = load i32, ptr %2, align 4
  %4 = and i32 %3, 4095
  ret i32 %4
}

; Function Attrs: nounwind uwtable
define internal ptr @Mig_ObjFanin(ptr noundef %0, i32 noundef %1) #0 {
  %3 = alloca ptr, align 8
  %4 = alloca i32, align 4
  store ptr %0, ptr %3, align 8
  store i32 %1, ptr %4, align 4
  %5 = load ptr, ptr %3, align 8
  %6 = call ptr @Mig_ObjMan(ptr noundef %5)
  %7 = load ptr, ptr %3, align 8
  %8 = load i32, ptr %4, align 4
  %9 = call i32 @Mig_ObjFaninId(ptr noundef %7, i32 noundef %8)
  %10 = call ptr @Mig_ManObj(ptr noundef %6, i32 noundef %9)
  ret ptr %10
}

; Function Attrs: nounwind uwtable
define internal i32 @Mig_FanIsNone(ptr noundef %0, i32 noundef %1) #0 {
  %3 = alloca ptr, align 8
  %4 = alloca i32, align 4
  store ptr %0, ptr %3, align 8
  store i32 %1, ptr %4, align 4
  %5 = load ptr, ptr %3, align 8
  %6 = getelementptr inbounds %struct.Mig_Obj_t_, ptr %5, i32 0, i32 0
  %7 = load i32, ptr %4, align 4
  %8 = sext i32 %7 to i64
  %9 = getelementptr inbounds [4 x %struct.Mig_Fan_t_], ptr %6, i64 0, i64 %8
  %10 = load i32, ptr %9, align 4
  %11 = lshr i32 %10, 1
  %12 = icmp eq i32 %11, 2147483647
  %13 = zext i1 %12 to i32
  ret i32 %13
}

; Function Attrs: nounwind uwtable
define internal i32 @Mig_ObjIsTerm(ptr noundef %0) #0 {
  %2 = alloca ptr, align 8
  store ptr %0, ptr %2, align 8
  %3 = load ptr, ptr %2, align 8
  %4 = call i32 @Mig_FanIsNone(ptr noundef %3, i32 noundef 1)
  %5 = icmp ne i32 %4, 0
  br i1 %5, label %6, label %11

6:                                                ; preds = %1
  %7 = load ptr, ptr %2, align 8
  %8 = call i32 @Mig_FanIsNone(ptr noundef %7, i32 noundef 2)
  %9 = icmp ne i32 %8, 0
  %10 = xor i1 %9, true
  br label %11

11:                                               ; preds = %6, %1
  %12 = phi i1 [ false, %1 ], [ %10, %6 ]
  %13 = zext i1 %12 to i32
  ret i32 %13
}

; Function Attrs: nounwind uwtable
define internal void @Vec_IntSetEntry(ptr noundef %0, i32 noundef %1, i32 noundef %2) #0 {
  %4 = alloca ptr, align 8
  %5 = alloca i32, align 4
  %6 = alloca i32, align 4
  store ptr %0, ptr %4, align 8
  store i32 %1, ptr %5, align 4
  store i32 %2, ptr %6, align 4
  %7 = load ptr, ptr %4, align 8
  %8 = load i32, ptr %5, align 4
  %9 = add nsw i32 %8, 1
  call void @Vec_IntFillExtra(ptr noundef %7, i32 noundef %9, i32 noundef 0)
  %10 = load ptr, ptr %4, align 8
  %11 = load i32, ptr %5, align 4
  %12 = load i32, ptr %6, align 4
  call void @Vec_IntWriteEntry(ptr noundef %10, i32 noundef %11, i32 noundef %12)
  ret void
}

; Function Attrs: nounwind uwtable
define internal i32 @Vec_IntGetEntry(ptr noundef %0, i32 noundef %1) #0 {
  %3 = alloca ptr, align 8
  %4 = alloca i32, align 4
  store ptr %0, ptr %3, align 8
  store i32 %1, ptr %4, align 4
  %5 = load ptr, ptr %3, align 8
  %6 = load i32, ptr %4, align 4
  %7 = add nsw i32 %6, 1
  call void @Vec_IntFillExtra(ptr noundef %5, i32 noundef %7, i32 noundef 0)
  %8 = load ptr, ptr %3, align 8
  %9 = load i32, ptr %4, align 4
  %10 = call i32 @Vec_IntEntry(ptr noundef %8, i32 noundef %9)
  ret i32 %10
}

; Function Attrs: nounwind uwtable
define internal i32 @Mig_ObjId(ptr noundef %0) #0 {
  %2 = alloca ptr, align 8
  store ptr %0, ptr %2, align 8
  %3 = load ptr, ptr %2, align 8
  %4 = call i32 @Mig_FanId(ptr noundef %3, i32 noundef 3)
  ret i32 %4
}

; Function Attrs: nounwind uwtable
define internal ptr @Mig_ObjMan(ptr noundef %0) #0 {
  %2 = alloca ptr, align 8
  store ptr %0, ptr %2, align 8
  %3 = load ptr, ptr %2, align 8
  %4 = load ptr, ptr %2, align 8
  %5 = call i32 @Mig_ObjId(ptr noundef %4)
  %6 = call i32 @Mig_IdCell(i32 noundef %5)
  %7 = sext i32 %6 to i64
  %8 = sub i64 0, %7
  %9 = getelementptr inbounds %struct.Mig_Obj_t_, ptr %3, i64 %8
  %10 = getelementptr inbounds %struct.Mig_Obj_t_, ptr %9, i64 -1
  %11 = load ptr, ptr %10, align 8
  ret ptr %11
}

; Function Attrs: nounwind uwtable
define internal ptr @Mig_ObjFanin2(ptr noundef %0) #0 {
  %2 = alloca ptr, align 8
  store ptr %0, ptr %2, align 8
  %3 = load ptr, ptr %2, align 8
  %4 = call i32 @Mig_FanIsNone(ptr noundef %3, i32 noundef 2)
  %5 = icmp ne i32 %4, 0
  br i1 %5, label %6, label %7

6:                                                ; preds = %1
  br label %10

7:                                                ; preds = %1
  %8 = load ptr, ptr %2, align 8
  %9 = call ptr @Mig_ObjFanin(ptr noundef %8, i32 noundef 2)
  br label %10

10:                                               ; preds = %7, %6
  %11 = phi ptr [ null, %6 ], [ %9, %7 ]
  ret ptr %11
}

; Function Attrs: nounwind uwtable
define internal ptr @Mig_ObjFanin1(ptr noundef %0) #0 {
  %2 = alloca ptr, align 8
  store ptr %0, ptr %2, align 8
  %3 = load ptr, ptr %2, align 8
  %4 = call i32 @Mig_FanIsNone(ptr noundef %3, i32 noundef 1)
  %5 = icmp ne i32 %4, 0
  br i1 %5, label %6, label %7

6:                                                ; preds = %1
  br label %10

7:                                                ; preds = %1
  %8 = load ptr, ptr %2, align 8
  %9 = call ptr @Mig_ObjFanin(ptr noundef %8, i32 noundef 1)
  br label %10

10:                                               ; preds = %7, %6
  %11 = phi ptr [ null, %6 ], [ %9, %7 ]
  ret ptr %11
}

; Function Attrs: nounwind uwtable
define internal ptr @Mig_ObjFanin0(ptr noundef %0) #0 {
  %2 = alloca ptr, align 8
  store ptr %0, ptr %2, align 8
  %3 = load ptr, ptr %2, align 8
  %4 = call i32 @Mig_FanIsNone(ptr noundef %3, i32 noundef 0)
  %5 = icmp ne i32 %4, 0
  br i1 %5, label %6, label %7

6:                                                ; preds = %1
  br label %10

7:                                                ; preds = %1
  %8 = load ptr, ptr %2, align 8
  %9 = call ptr @Mig_ObjFanin(ptr noundef %8, i32 noundef 0)
  br label %10

10:                                               ; preds = %7, %6
  %11 = phi ptr [ null, %6 ], [ %9, %7 ]
  ret ptr %11
}

; Function Attrs: nounwind uwtable
define internal i32 @Mig_ObjIsCi(ptr noundef %0) #0 {
  %2 = alloca ptr, align 8
  store ptr %0, ptr %2, align 8
  %3 = load ptr, ptr %2, align 8
  %4 = call i32 @Mig_ObjIsTerm(ptr noundef %3)
  %5 = icmp ne i32 %4, 0
  br i1 %5, label %6, label %10

6:                                                ; preds = %1
  %7 = load ptr, ptr %2, align 8
  %8 = call i32 @Mig_FanIsNone(ptr noundef %7, i32 noundef 0)
  %9 = icmp ne i32 %8, 0
  br label %10

10:                                               ; preds = %6, %1
  %11 = phi i1 [ false, %1 ], [ %9, %6 ]
  %12 = zext i1 %11 to i32
  ret i32 %12
}

; Function Attrs: nounwind uwtable
define internal void @Mig_ObjSetTravIdCurrent(ptr noundef %0) #0 {
  %2 = alloca ptr, align 8
  store ptr %0, ptr %2, align 8
  %3 = load ptr, ptr %2, align 8
  %4 = call ptr @Mig_ObjMan(ptr noundef %3)
  %5 = getelementptr inbounds %struct.Mig_Man_t_, ptr %4, i32 0, i32 10
  %6 = load ptr, ptr %2, align 8
  %7 = call i32 @Mig_ObjId(ptr noundef %6)
  %8 = load ptr, ptr %2, align 8
  %9 = call ptr @Mig_ObjMan(ptr noundef %8)
  %10 = getelementptr inbounds %struct.Mig_Man_t_, ptr %9, i32 0, i32 9
  %11 = load i32, ptr %10, align 4
  call void @Vec_IntSetEntry(ptr noundef %5, i32 noundef %7, i32 noundef %11)
  ret void
}

; Function Attrs: nounwind uwtable
define internal i32 @Mig_ObjIsTravIdCurrent(ptr noundef %0) #0 {
  %2 = alloca ptr, align 8
  store ptr %0, ptr %2, align 8
  %3 = load ptr, ptr %2, align 8
  %4 = call ptr @Mig_ObjMan(ptr noundef %3)
  %5 = getelementptr inbounds %struct.Mig_Man_t_, ptr %4, i32 0, i32 10
  %6 = load ptr, ptr %2, align 8
  %7 = call i32 @Mig_ObjId(ptr noundef %6)
  %8 = call i32 @Vec_IntGetEntry(ptr noundef %5, i32 noundef %7)
  %9 = load ptr, ptr %2, align 8
  %10 = call ptr @Mig_ObjMan(ptr noundef %9)
  %11 = getelementptr inbounds %struct.Mig_Man_t_, ptr %10, i32 0, i32 9
  %12 = load i32, ptr %11, align 4
  %13 = icmp eq i32 %8, %12
  %14 = zext i1 %13 to i32
  ret i32 %14
}

; Function Attrs: nounwind uwtable
define i32 @Mig_ManSuppSize_rec(ptr noundef %0) #0 {
  %2 = alloca i32, align 4
  %3 = alloca ptr, align 8
  store ptr %0, ptr %3, align 8
  %4 = load ptr, ptr %3, align 8
  %5 = icmp eq ptr %4, null
  br i1 %5, label %6, label %7

6:                                                ; preds = %1
  store i32 0, ptr %2, align 4
  br label %30

7:                                                ; preds = %1
  %8 = load ptr, ptr %3, align 8
  %9 = call i32 @Mig_ObjIsTravIdCurrent(ptr noundef %8)
  %10 = icmp ne i32 %9, 0
  br i1 %10, label %11, label %12

11:                                               ; preds = %7
  store i32 0, ptr %2, align 4
  br label %30

12:                                               ; preds = %7
  %13 = load ptr, ptr %3, align 8
  call void @Mig_ObjSetTravIdCurrent(ptr noundef %13)
  %14 = load ptr, ptr %3, align 8
  %15 = call i32 @Mig_ObjIsCi(ptr noundef %14)
  %16 = icmp ne i32 %15, 0
  br i1 %16, label %17, label %18

17:                                               ; preds = %12
  store i32 1, ptr %2, align 4
  br label %30

18:                                               ; preds = %12
  %19 = load ptr, ptr %3, align 8
  %20 = call ptr @Mig_ObjFanin0(ptr noundef %19)
  %21 = call i32 @Mig_ManSuppSize_rec(ptr noundef %20)
  %22 = load ptr, ptr %3, align 8
  %23 = call ptr @Mig_ObjFanin1(ptr noundef %22)
  %24 = call i32 @Mig_ManSuppSize_rec(ptr noundef %23)
  %25 = add nsw i32 %21, %24
  %26 = load ptr, ptr %3, align 8
  %27 = call ptr @Mig_ObjFanin2(ptr noundef %26)
  %28 = call i32 @Mig_ManSuppSize_rec(ptr noundef %27)
  %29 = add nsw i32 %25, %28
  store i32 %29, ptr %2, align 4
  br label %30

30:                                               ; preds = %18, %17, %11, %6
  %31 = load i32, ptr %2, align 4
  ret i32 %31
}