; Function Attrs: nounwind uwtable
define i32 @Mig_ManSuppSize_rec(ptr noundef readonly %0) local_unnamed_addr #2 {
  %2 = icmp eq ptr %0, null
  br i1 %2, label %Mig_ObjIsCi.exit._crit_edge, label %.lr.ph

.lr.ph:                                           ; preds = %1, %Mig_ObjFanin2.exit
  %.tr19 = phi ptr [ %102, %Mig_ObjFanin2.exit ], [ %0, %1 ]
  %accumulator.tr17 = phi i32 [ %104, %Mig_ObjFanin2.exit ], [ 0, %1 ]
  %3 = getelementptr i8, ptr %.tr19, i64 12
  %.val.i.i = load i32, ptr %3, align 4
  %4 = lshr i32 %.val.i.i, 1
  %5 = and i32 %4, 4095
  %6 = zext nneg i32 %5 to i64
  %7 = sub nsw i64 0, %6
  %8 = getelementptr inbounds %struct.Mig_Obj_t_, ptr %.tr19, i64 %7
  %9 = getelementptr inbounds i8, ptr %8, i64 -16
  %10 = load ptr, ptr %9, align 8
  %11 = getelementptr inbounds nuw i8, ptr %10, i64 88
  %12 = add nuw nsw i32 %4, 1
  tail call fastcc void @Vec_IntFillExtra(ptr noundef nonnull %11, i32 noundef %12)
  %13 = getelementptr i8, ptr %10, i64 96
  %.val.i3.i = load ptr, ptr %13, align 8
  %14 = zext nneg i32 %4 to i64
  %15 = getelementptr inbounds nuw i32, ptr %.val.i3.i, i64 %14
  %16 = load i32, ptr %15, align 4
  %.val.i4.i = load i32, ptr %3, align 4
  %17 = lshr i32 %.val.i4.i, 1
  %18 = and i32 %17, 4095
  %19 = zext nneg i32 %18 to i64
  %20 = sub nsw i64 0, %19
  %21 = getelementptr inbounds %struct.Mig_Obj_t_, ptr %.tr19, i64 %20
  %22 = getelementptr inbounds i8, ptr %21, i64 -16
  %23 = load ptr, ptr %22, align 8
  %24 = getelementptr inbounds nuw i8, ptr %23, i64 84
  %25 = load i32, ptr %24, align 4
  %.not = icmp eq i32 %16, %25
  br i1 %.not, label %Mig_ObjIsCi.exit._crit_edge.loopexit, label %26

26:                                               ; preds = %.lr.ph
  %27 = getelementptr inbounds nuw i8, ptr %23, i64 88
  %28 = add nuw nsw i32 %17, 1
  tail call fastcc void @Vec_IntFillExtra(ptr noundef nonnull %27, i32 noundef %28)
  %29 = getelementptr i8, ptr %23, i64 96
  %.val.i4.i10 = load ptr, ptr %29, align 8
  %30 = zext nneg i32 %17 to i64
  %31 = getelementptr inbounds nuw i32, ptr %.val.i4.i10, i64 %30
  store i32 %25, ptr %31, align 4
  %32 = getelementptr inbounds nuw i8, ptr %.tr19, i64 4
  %33 = load i32, ptr %32, align 4
  %34 = icmp ult i32 %33, -2
  br i1 %34, label %40, label %Mig_ObjIsTerm.exit.i

Mig_ObjIsTerm.exit.i:                             ; preds = %26
  %35 = getelementptr inbounds nuw i8, ptr %.tr19, i64 8
  %36 = load i32, ptr %35, align 4
  %37 = icmp ugt i32 %36, -3
  br i1 %37, label %40, label %Mig_ObjIsCi.exit

Mig_ObjIsCi.exit:                                 ; preds = %Mig_ObjIsTerm.exit.i
  %38 = load i32, ptr %.tr19, align 4
  %39 = icmp ult i32 %38, -2
  br i1 %39, label %.thread, label %Mig_ObjIsCi.exit._crit_edge.loopexit

40:                                               ; preds = %26, %Mig_ObjIsTerm.exit.i
  %.pr = load i32, ptr %.tr19, align 4
  %41 = icmp ult i32 %.pr, -2
  br i1 %41, label %.thread, label %Mig_ObjFanin0.exit

.thread:                                          ; preds = %Mig_ObjIsCi.exit, %40
  %42 = phi i32 [ %.pr, %40 ], [ %38, %Mig_ObjIsCi.exit ]
  %.val.i.i.i = load i32, ptr %3, align 4
  %43 = lshr i32 %.val.i.i.i, 1
  %44 = and i32 %43, 4095
  %45 = zext nneg i32 %44 to i64
  %46 = sub nsw i64 0, %45
  %47 = getelementptr inbounds %struct.Mig_Obj_t_, ptr %.tr19, i64 %46
  %48 = getelementptr inbounds i8, ptr %47, i64 -16
  %49 = load ptr, ptr %48, align 8
  %50 = lshr i32 %42, 1
  %51 = getelementptr i8, ptr %49, i64 32
  %.val.i.i11 = load ptr, ptr %51, align 8
  %52 = lshr i32 %42, 13
  %53 = zext nneg i32 %52 to i64
  %54 = getelementptr inbounds nuw ptr, ptr %.val.i.i11, i64 %53
  %55 = load ptr, ptr %54, align 8
  %56 = and i32 %50, 4095
  %57 = zext nneg i32 %56 to i64
  %58 = getelementptr inbounds nuw %struct.Mig_Obj_t_, ptr %55, i64 %57
  br label %Mig_ObjFanin0.exit

Mig_ObjFanin0.exit:                               ; preds = %40, %.thread
  %59 = phi ptr [ %58, %.thread ], [ null, %40 ]
  %60 = tail call i32 @Mig_ManSuppSize_rec(ptr noundef %59)
  %61 = load i32, ptr %32, align 4
  %62 = icmp ult i32 %61, -2
  br i1 %62, label %63, label %Mig_ObjFanin1.exit

63:                                               ; preds = %Mig_ObjFanin0.exit
  %.val.i.i.i12 = load i32, ptr %3, align 4
  %64 = lshr i32 %.val.i.i.i12, 1
  %65 = and i32 %64, 4095
  %66 = zext nneg i32 %65 to i64
  %67 = sub nsw i64 0, %66
  %68 = getelementptr inbounds %struct.Mig_Obj_t_, ptr %.tr19, i64 %67
  %69 = getelementptr inbounds i8, ptr %68, i64 -16
  %70 = load ptr, ptr %69, align 8
  %71 = lshr i32 %61, 1
  %72 = getelementptr i8, ptr %70, i64 32
  %.val.i.i13 = load ptr, ptr %72, align 8
  %73 = lshr i32 %61, 13
  %74 = zext nneg i32 %73 to i64
  %75 = getelementptr inbounds nuw ptr, ptr %.val.i.i13, i64 %74
  %76 = load ptr, ptr %75, align 8
  %77 = and i32 %71, 4095
  %78 = zext nneg i32 %77 to i64
  %79 = getelementptr inbounds nuw %struct.Mig_Obj_t_, ptr %76, i64 %78
  br label %Mig_ObjFanin1.exit

Mig_ObjFanin1.exit:                               ; preds = %Mig_ObjFanin0.exit, %63
  %80 = phi ptr [ %79, %63 ], [ null, %Mig_ObjFanin0.exit ]
  %81 = tail call i32 @Mig_ManSuppSize_rec(ptr noundef %80)
  %82 = getelementptr inbounds nuw i8, ptr %.tr19, i64 8
  %83 = load i32, ptr %82, align 4
  %84 = icmp ult i32 %83, -2
  br i1 %84, label %Mig_ObjFanin2.exit, label %Mig_ObjFanin2.exit.thread

Mig_ObjFanin2.exit.thread:                        ; preds = %Mig_ObjFanin1.exit
  %85 = add i32 %60, %accumulator.tr17
  %86 = add i32 %85, %81
  br label %Mig_ObjIsCi.exit._crit_edge.loopexit

Mig_ObjFanin2.exit:                               ; preds = %Mig_ObjFanin1.exit
  %.val.i.i.i14 = load i32, ptr %3, align 4
  %87 = lshr i32 %.val.i.i.i14, 1
  %88 = and i32 %87, 4095
  %89 = zext nneg i32 %88 to i64
  %90 = sub nsw i64 0, %89
  %91 = getelementptr inbounds %struct.Mig_Obj_t_, ptr %.tr19, i64 %90
  %92 = getelementptr inbounds i8, ptr %91, i64 -16
  %93 = load ptr, ptr %92, align 8
  %94 = lshr i32 %83, 1
  %95 = getelementptr i8, ptr %93, i64 32
  %.val.i.i15 = load ptr, ptr %95, align 8
  %96 = lshr i32 %83, 13
  %97 = zext nneg i32 %96 to i64
  %98 = getelementptr inbounds nuw ptr, ptr %.val.i.i15, i64 %97
  %99 = load ptr, ptr %98, align 8
  %100 = and i32 %94, 4095
  %101 = zext nneg i32 %100 to i64
  %102 = getelementptr inbounds nuw %struct.Mig_Obj_t_, ptr %99, i64 %101
  %103 = add i32 %60, %accumulator.tr17
  %104 = add i32 %103, %81
  %105 = icmp eq ptr %99, null
  br i1 %105, label %Mig_ObjIsCi.exit._crit_edge.loopexit, label %.lr.ph

Mig_ObjIsCi.exit._crit_edge.loopexit:             ; preds = %Mig_ObjIsCi.exit, %.lr.ph, %Mig_ObjFanin2.exit, %Mig_ObjFanin2.exit.thread
  %accumulator.tr.lcssa.ph = phi i32 [ %86, %Mig_ObjFanin2.exit.thread ], [ %accumulator.tr17, %Mig_ObjIsCi.exit ], [ %accumulator.tr17, %.lr.ph ], [ %104, %Mig_ObjFanin2.exit ]
  %.0.ph = phi i32 [ 0, %Mig_ObjFanin2.exit.thread ], [ 1, %Mig_ObjIsCi.exit ], [ 0, %.lr.ph ], [ 0, %Mig_ObjFanin2.exit ]
  %106 = add nsw i32 %.0.ph, %accumulator.tr.lcssa.ph
  br label %Mig_ObjIsCi.exit._crit_edge

Mig_ObjIsCi.exit._crit_edge:                      ; preds = %Mig_ObjIsCi.exit._crit_edge.loopexit, %1
  %accumulator.ret.tr = phi i32 [ 0, %1 ], [ %106, %Mig_ObjIsCi.exit._crit_edge.loopexit ]
  ret i32 %accumulator.ret.tr
}